; Function Attrs: nounwind uwtable
define internal void @_sha1_free(ptr noundef %0) #0 {
  %2 = tail call ptr @PyModule_GetState(ptr noundef %0) #3
  %3 = load ptr, ptr %2, align 8, !tbaa !9
  %.not.i = icmp eq ptr %3, null
  br i1 %.not.i, label %_sha1_clear.exit, label %4

4:                                                ; preds = %1
  store ptr null, ptr %2, align 8, !tbaa !9
  %5 = load i32, ptr %3, align 8, !tbaa !10
  %.not.i.i = icmp sgt i32 %5, -1
  br i1 %.not.i.i, label %6, label %_sha1_clear.exit

6:                                                ; preds = %4
  %7 = add nsw i32 %5, -1
  store i32 %7, ptr %3, align 8, !tbaa !10
  %8 = icmp eq i32 %7, 0
  br i1 %8, label %9, label %_sha1_clear.exit

9:                                                ; preds = %6
  tail call void @_Py_Dealloc(ptr noundef nonnull %3) #3
  br label %_sha1_clear.exit

_sha1_clear.exit:                                 ; preds = %1, %4, %6, %9
  ret void
}